; Function Attrs: mustprogress nounwind uwtable
define hidden noundef ptr @_ZN11OptoRuntime20array_partition_TypeEv() local_unnamed_addr #0 align 2 {
  %1 = tail call noundef ptr @_ZN9TypeTuple6fieldsEj(i32 noundef 7) #12
  %2 = load ptr, ptr @_ZN7TypePtr7NOTNULLE, align 8
  %3 = getelementptr inbounds i8, ptr %1, i64 40
  store ptr %2, ptr %3, align 8
  %4 = load ptr, ptr @_ZN7TypeInt3INTE, align 8
  %5 = getelementptr inbounds i8, ptr %1, i64 48
  store ptr %4, ptr %5, align 8
  %6 = getelementptr inbounds i8, ptr %1, i64 56
  store ptr %4, ptr %6, align 8
  %7 = getelementptr inbounds i8, ptr %1, i64 64
  store ptr %4, ptr %7, align 8
  %8 = getelementptr inbounds i8, ptr %1, i64 72
  store ptr %2, ptr %8, align 8
  %9 = getelementptr inbounds i8, ptr %1, i64 80
  store ptr %4, ptr %9, align 8
  %10 = getelementptr inbounds i8, ptr %1, i64 88
  store ptr %4, ptr %10, align 8
  %11 = tail call noundef ptr @_ZN9TypeTuple4makeEjPPK4Type(i32 noundef 12, ptr noundef %1) #12
  %12 = tail call noundef ptr @_ZN9TypeTuple6fieldsEj(i32 noundef 1) #12
  %13 = getelementptr inbounds i8, ptr %12, i64 40
  store ptr null, ptr %13, align 8
  %14 = tail call noundef ptr @_ZN9TypeTuple4makeEjPPK4Type(i32 noundef 5, ptr noundef %12) #12
  %15 = tail call noundef ptr @_ZN8TypeFunc4makeEPK9TypeTupleS2_(ptr noundef %11, ptr noundef %14) #12
  ret ptr %15
}